; Function Attrs: mustprogress uwtable
define internal fastcc noundef zeroext i1 @_ZN7rocksdb12_GLOBAL__N_128PrefixExtractorChangedHelperEPKNS_15TablePropertiesEPKNS_14SliceTransformE(ptr noundef %table_properties, ptr noundef %prefix_extractor) unnamed_addr #3 personality ptr @__gxx_personality_v0 {
entry:
  %ref.tmp = alloca %"class.std::__cxx11::basic_string", align 8
  %cmp = icmp eq ptr %prefix_extractor, null
  %cmp1 = icmp eq ptr %table_properties, null
  %or.cond = or i1 %cmp1, %cmp
  br i1 %or.cond, label %return, label %lor.lhs.false2

lor.lhs.false2:                                   ; preds = %entry
  %prefix_extractor_name = getelementptr inbounds i8, ptr %table_properties, i64 440
  %call = tail call noundef zeroext i1 @_ZNKSt7__cxx1112basic_stringIcSt11char_traitsIcESaIcEE5emptyEv(ptr noundef nonnull align 8 dereferenceable(32) %prefix_extractor_name) #33
  br i1 %call, label %return, label %if.end

if.end:                                           ; preds = %lor.lhs.false2
  call void @_ZNK7rocksdb14SliceTransform8AsStringB5cxx11Ev(ptr nonnull sret(%"class.std::__cxx11::basic_string") align 8 %ref.tmp, ptr noundef nonnull align 8 dereferenceable(32) %prefix_extractor)
  %call.i.i = call noundef i64 @_ZNKSt7__cxx1112basic_stringIcSt11char_traitsIcESaIcEE4sizeEv(ptr noundef nonnull align 8 dereferenceable(32) %prefix_extractor_name) #33
  %call1.i.i = call noundef i64 @_ZNKSt7__cxx1112basic_stringIcSt11char_traitsIcESaIcEE4sizeEv(ptr noundef nonnull align 8 dereferenceable(32) %ref.tmp) #33
  %cmp.i.i = icmp eq i64 %call.i.i, %call1.i.i
  br i1 %cmp.i.i, label %land.rhs.i.i, label %_ZStneIcSt11char_traitsIcESaIcEEbRKNSt7__cxx1112basic_stringIT_T0_T1_EESA_.exit

land.rhs.i.i:                                     ; preds = %if.end
  %call2.i.i = call noundef ptr @_ZNKSt7__cxx1112basic_stringIcSt11char_traitsIcESaIcEE4dataEv(ptr noundef nonnull align 8 dereferenceable(32) %prefix_extractor_name) #33
  %call3.i.i = call noundef ptr @_ZNKSt7__cxx1112basic_stringIcSt11char_traitsIcESaIcEE4dataEv(ptr noundef nonnull align 8 dereferenceable(32) %ref.tmp) #33
  %call4.i.i = call noundef i64 @_ZNKSt7__cxx1112basic_stringIcSt11char_traitsIcESaIcEE4sizeEv(ptr noundef nonnull align 8 dereferenceable(32) %prefix_extractor_name) #33
  %cmp.i.i.i = icmp eq i64 %call4.i.i, 0
  br i1 %cmp.i.i.i, label %_ZStneIcSt11char_traitsIcESaIcEEbRKNSt7__cxx1112basic_stringIT_T0_T1_EESA_.exit, label %if.end.i.i.i

if.end.i.i.i:                                     ; preds = %land.rhs.i.i
  %bcmp.i.i = call i32 @bcmp(ptr %call2.i.i, ptr %call3.i.i, i64 %call4.i.i)
  %0 = icmp ne i32 %bcmp.i.i, 0
  br label %_ZStneIcSt11char_traitsIcESaIcEEbRKNSt7__cxx1112basic_stringIT_T0_T1_EESA_.exit

_ZStneIcSt11char_traitsIcESaIcEEbRKNSt7__cxx1112basic_stringIT_T0_T1_EESA_.exit: ; preds = %if.end, %land.rhs.i.i, %if.end.i.i.i
  %lnot.i = phi i1 [ true, %if.end ], [ %0, %if.end.i.i.i ], [ false, %land.rhs.i.i ]
  call void @_ZNSt7__cxx1112basic_stringIcSt11char_traitsIcESaIcEED1Ev(ptr noundef nonnull align 8 dereferenceable(32) %ref.tmp) #33
  br label %return

return:                                           ; preds = %_ZStneIcSt11char_traitsIcESaIcEEbRKNSt7__cxx1112basic_stringIT_T0_T1_EESA_.exit, %entry, %lor.lhs.false2
  %retval.0 = phi i1 [ true, %lor.lhs.false2 ], [ true, %entry ], [ %lnot.i, %_ZStneIcSt11char_traitsIcESaIcEEbRKNSt7__cxx1112basic_stringIT_T0_T1_EESA_.exit ]
  ret i1 %retval.0
}